target datalayout = "e-m:e-p270:32:32-p271:32:32-p272:64:64-i64:64-i128:128-f80:128-n8:16:32:64-S128"
target triple = "x86_64-pc-linux-gnu"

%struct.strbuf = type { i64, i64, ptr }
%struct.key_value_info = type { ptr, i32, i32, i32, ptr }
%struct.config_context = type { ptr }

@__const.git_config_parse_parameter.kvi = private unnamed_addr constant { ptr, i32, i32, i32, [4 x i8], ptr } { ptr null, i32 -1, i32 0, i32 0, [4 x i8] zeroinitializer, ptr null }, align 8
@.str.7 = private unnamed_addr constant [27 x i8] c"bogus config parameter: %s\00", align 1
@.str.8 = private unnamed_addr constant [1 x i8] zeroinitializer, align 1
@strbuf_slopbuf = external global [0 x i8], align 1
@git_gettext_enabled = external global i32, align 4
@.str.88 = private unnamed_addr constant [11 x i8] c"./strbuf.h\00", align 1
@.str.89 = private unnamed_addr constant [30 x i8] c"strbuf_setlen() beyond buffer\00", align 1
@.str.90 = private unnamed_addr constant [17 x i8] c"empty config key\00", align 1

; Function Attrs: nounwind uwtable
define internal i32 @config_parse_pair(ptr noundef %0, ptr noundef %1, ptr noundef %2, ptr noundef %3, ptr noundef %4) #0 {
  %6 = alloca i32, align 4
  %7 = alloca ptr, align 8
  %8 = alloca ptr, align 8
  %9 = alloca ptr, align 8
  %10 = alloca ptr, align 8
  %11 = alloca ptr, align 8
  %12 = alloca ptr, align 8
  %13 = alloca i32, align 4
  %14 = alloca %struct.config_context, align 8
  %15 = alloca i32, align 4
  store ptr %0, ptr %7, align 8, !tbaa !4
  store ptr %1, ptr %8, align 8, !tbaa !4
  store ptr %2, ptr %9, align 8, !tbaa !22
  store ptr %3, ptr %10, align 8, !tbaa !30
  store ptr %4, ptr %11, align 8, !tbaa !30
  call void @llvm.lifetime.start.p0(i64 8, ptr %12) #13
  call void @llvm.lifetime.start.p0(i64 4, ptr %13) #13
  call void @llvm.lifetime.start.p0(i64 8, ptr %14) #13
  %16 = getelementptr inbounds nuw %struct.config_context, ptr %14, i32 0, i32 0
  %17 = load ptr, ptr %9, align 8, !tbaa !22
  store ptr %17, ptr %16, align 8, !tbaa !37
  %18 = load ptr, ptr %7, align 8, !tbaa !4
  %19 = call i64 @strlen(ptr noundef %18) #14
  %20 = icmp ne i64 %19, 0
  br i1 %20, label %25, label %21

21:                                               ; preds = %5
  %22 = call ptr @_(ptr noundef @.str.90)
  %23 = call i32 (ptr, ...) @error(ptr noundef %22)
  %24 = call i32 @const_error()
  store i32 %24, ptr %6, align 4
  store i32 1, ptr %15, align 4
  br label %40

25:                                               ; preds = %5
  %26 = load ptr, ptr %7, align 8, !tbaa !4
  %27 = call i32 @git_config_parse_key(ptr noundef %26, ptr noundef %12, ptr noundef null)
  %28 = icmp ne i32 %27, 0
  br i1 %28, label %29, label %30

29:                                               ; preds = %25
  store i32 -1, ptr %6, align 4
  store i32 1, ptr %15, align 4
  br label %40

30:                                               ; preds = %25
  %31 = load ptr, ptr %10, align 8, !tbaa !30
  %32 = load ptr, ptr %12, align 8, !tbaa !4
  %33 = load ptr, ptr %8, align 8, !tbaa !4
  %34 = load ptr, ptr %11, align 8, !tbaa !30
  %35 = call i32 %31(ptr noundef %32, ptr noundef %33, ptr noundef %14, ptr noundef %34)
  %36 = icmp slt i32 %35, 0
  %37 = select i1 %36, i32 -1, i32 0
  store i32 %37, ptr %13, align 4, !tbaa !13
  %38 = load ptr, ptr %12, align 8, !tbaa !4
  call void @free(ptr noundef %38) #13
  %39 = load i32, ptr %13, align 4, !tbaa !13
  store i32 %39, ptr %6, align 4
  store i32 1, ptr %15, align 4
  br label %40

40:                                               ; preds = %30, %29, %21
  call void @llvm.lifetime.end.p0(i64 8, ptr %14) #13
  call void @llvm.lifetime.end.p0(i64 4, ptr %13) #13
  call void @llvm.lifetime.end.p0(i64 8, ptr %12) #13
  %41 = load i32, ptr %6, align 4
  ret i32 %41
}

; Function Attrs: inlinehint nounwind uwtable
define internal void @strbuf_setlen(ptr noundef %0, i64 noundef %1) #6 {
  %3 = alloca ptr, align 8
  %4 = alloca i64, align 8
  store ptr %0, ptr %3, align 8, !tbaa !33
  store i64 %1, ptr %4, align 8, !tbaa !19
  %5 = load i64, ptr %4, align 8, !tbaa !19
  %6 = load ptr, ptr %3, align 8, !tbaa !33
  %7 = getelementptr inbounds nuw %struct.strbuf, ptr %6, i32 0, i32 0
  %8 = load i64, ptr %7, align 8, !tbaa !36
  %9 = icmp ne i64 %8, 0
  br i1 %9, label %10, label %15

10:                                               ; preds = %2
  %11 = load ptr, ptr %3, align 8, !tbaa !33
  %12 = getelementptr inbounds nuw %struct.strbuf, ptr %11, i32 0, i32 0
  %13 = load i64, ptr %12, align 8, !tbaa !36
  %14 = sub i64 %13, 1
  br label %16

15:                                               ; preds = %2
  br label %16

16:                                               ; preds = %15, %10
  %17 = phi i64 [ %14, %10 ], [ 0, %15 ]
  %18 = icmp ugt i64 %5, %17
  br i1 %18, label %19, label %20

19:                                               ; preds = %16
  call void (ptr, i32, ptr, ...) @BUG_fl(ptr noundef @.str.88, i32 noundef 167, ptr noundef @.str.89) #15
  unreachable

20:                                               ; preds = %16
  %21 = load i64, ptr %4, align 8, !tbaa !19
  %22 = load ptr, ptr %3, align 8, !tbaa !33
  %23 = getelementptr inbounds nuw %struct.strbuf, ptr %22, i32 0, i32 1
  store i64 %21, ptr %23, align 8, !tbaa !35
  %24 = load ptr, ptr %3, align 8, !tbaa !33
  %25 = getelementptr inbounds nuw %struct.strbuf, ptr %24, i32 0, i32 2
  %26 = load ptr, ptr %25, align 8, !tbaa !10
  %27 = icmp ne ptr %26, @strbuf_slopbuf
  br i1 %27, label %28, label %34

28:                                               ; preds = %20
  %29 = load ptr, ptr %3, align 8, !tbaa !33
  %30 = getelementptr inbounds nuw %struct.strbuf, ptr %29, i32 0, i32 2
  %31 = load ptr, ptr %30, align 8, !tbaa !10
  %32 = load i64, ptr %4, align 8, !tbaa !19
  %33 = getelementptr inbounds nuw i8, ptr %31, i64 %32
  store i8 0, ptr %33, align 1, !tbaa !9
  br label %35

34:                                               ; preds = %20
  br label %35

35:                                               ; preds = %34, %28
  ret void
}

; Function Attrs: inlinehint nounwind uwtable
define internal i32 @const_error() #6 {
  ret i32 -1
}

; Function Attrs: inlinehint nounwind uwtable
define internal ptr @_(ptr noundef %0) #6 {
  %2 = alloca ptr, align 8
  %3 = alloca ptr, align 8
  store ptr %0, ptr %3, align 8, !tbaa !4
  %4 = load ptr, ptr %3, align 8, !tbaa !4
  %5 = load i8, ptr %4, align 1, !tbaa !9
  %6 = icmp ne i8 %5, 0
  br i1 %6, label %8, label %7

7:                                                ; preds = %1
  store ptr @.str.8, ptr %2, align 8
  br label %16

8:                                                ; preds = %1
  %9 = load i32, ptr @git_gettext_enabled, align 4, !tbaa !13
  %10 = icmp ne i32 %9, 0
  br i1 %10, label %13, label %11

11:                                               ; preds = %8
  %12 = load ptr, ptr %3, align 8, !tbaa !4
  store ptr %12, ptr %2, align 8
  br label %16

13:                                               ; preds = %8
  %14 = load ptr, ptr %3, align 8, !tbaa !4
  %15 = call ptr @dcgettext(ptr noundef null, ptr noundef %14, i32 noundef 5) #13
  store ptr %15, ptr %2, align 8
  br label %16

16:                                               ; preds = %13, %11, %7
  %17 = load ptr, ptr %2, align 8
  ret ptr %17
}

; Function Attrs: inlinehint nounwind uwtable
define internal ptr @strbuf_split_str(ptr noundef %0, i32 noundef %1, i32 noundef %2) #6 {
  %4 = alloca ptr, align 8
  %5 = alloca i32, align 4
  %6 = alloca i32, align 4
  store ptr %0, ptr %4, align 8, !tbaa !4
  store i32 %1, ptr %5, align 4, !tbaa !13
  store i32 %2, ptr %6, align 4, !tbaa !13
  %7 = load ptr, ptr %4, align 8, !tbaa !4
  %8 = load ptr, ptr %4, align 8, !tbaa !4
  %9 = call i64 @strlen(ptr noundef %8) #14
  %10 = load i32, ptr %5, align 4, !tbaa !13
  %11 = load i32, ptr %6, align 4, !tbaa !13
  %12 = call ptr @strbuf_split_buf(ptr noundef %7, i64 noundef %9, i32 noundef %10, i32 noundef %11)
  ret ptr %12
}

; Function Attrs: nounwind uwtable
define dso_local void @kvi_from_param(ptr noundef %0) #0 {
  %2 = alloca ptr, align 8
  store ptr %0, ptr %2, align 8, !tbaa !22
  %3 = load ptr, ptr %2, align 8, !tbaa !22
  %4 = getelementptr inbounds nuw %struct.key_value_info, ptr %3, i32 0, i32 0
  store ptr null, ptr %4, align 8, !tbaa !24
  %5 = load ptr, ptr %2, align 8, !tbaa !22
  %6 = getelementptr inbounds nuw %struct.key_value_info, ptr %5, i32 0, i32 1
  store i32 -1, ptr %6, align 8, !tbaa !26
  %7 = load ptr, ptr %2, align 8, !tbaa !22
  %8 = getelementptr inbounds nuw %struct.key_value_info, ptr %7, i32 0, i32 2
  store i32 5, ptr %8, align 4, !tbaa !27
  %9 = load ptr, ptr %2, align 8, !tbaa !22
  %10 = getelementptr inbounds nuw %struct.key_value_info, ptr %9, i32 0, i32 3
  store i32 5, ptr %10, align 8, !tbaa !28
  %11 = load ptr, ptr %2, align 8, !tbaa !22
  %12 = getelementptr inbounds nuw %struct.key_value_info, ptr %11, i32 0, i32 4
  store ptr null, ptr %12, align 8, !tbaa !29
  ret void
}

; Function Attrs: nounwind uwtable
define dso_local i32 @git_config_parse_parameter(ptr noundef %0, ptr noundef %1, ptr noundef %2) #0 {
  %4 = alloca i32, align 4
  %5 = alloca ptr, align 8
  %6 = alloca ptr, align 8
  %7 = alloca ptr, align 8
  %8 = alloca ptr, align 8
  %9 = alloca ptr, align 8
  %10 = alloca i32, align 4
  %11 = alloca %struct.key_value_info, align 8
  %12 = alloca i32, align 4
  store ptr %0, ptr %5, align 8, !tbaa !4
  store ptr %1, ptr %6, align 8, !tbaa !30
  store ptr %2, ptr %7, align 8, !tbaa !30
  call void @llvm.lifetime.start.p0(i64 8, ptr %8) #13
  call void @llvm.lifetime.start.p0(i64 8, ptr %9) #13
  call void @llvm.lifetime.start.p0(i64 4, ptr %10) #13
  call void @llvm.lifetime.start.p0(i64 32, ptr %11) #13
  call void @llvm.memcpy.p0.p0.i64(ptr align 8 %11, ptr align 8 @__const.git_config_parse_parameter.kvi, i64 32, i1 false)
  call void @kvi_from_param(ptr noundef %11)
  %13 = load ptr, ptr %5, align 8, !tbaa !4
  %14 = call ptr @strbuf_split_str(ptr noundef %13, i32 noundef 61, i32 noundef 2)
  store ptr %14, ptr %9, align 8, !tbaa !31
  %15 = load ptr, ptr %9, align 8, !tbaa !31
  %16 = getelementptr inbounds ptr, ptr %15, i64 0
  %17 = load ptr, ptr %16, align 8, !tbaa !33
  %18 = icmp ne ptr %17, null
  br i1 %18, label %24, label %19

19:                                               ; preds = %3
  %20 = call ptr @_(ptr noundef @.str.7)
  %21 = load ptr, ptr %5, align 8, !tbaa !4
  %22 = call i32 (ptr, ...) @error(ptr noundef %20, ptr noundef %21)
  %23 = call i32 @const_error()
  store i32 %23, ptr %4, align 4
  store i32 1, ptr %12, align 4
  br label %99

24:                                               ; preds = %3
  %25 = load ptr, ptr %9, align 8, !tbaa !31
  %26 = getelementptr inbounds ptr, ptr %25, i64 0
  %27 = load ptr, ptr %26, align 8, !tbaa !33
  %28 = getelementptr inbounds nuw %struct.strbuf, ptr %27, i32 0, i32 1
  %29 = load i64, ptr %28, align 8, !tbaa !35
  %30 = icmp ne i64 %29, 0
  br i1 %30, label %31, label %70

31:                                               ; preds = %24
  %32 = load ptr, ptr %9, align 8, !tbaa !31
  %33 = getelementptr inbounds ptr, ptr %32, i64 0
  %34 = load ptr, ptr %33, align 8, !tbaa !33
  %35 = getelementptr inbounds nuw %struct.strbuf, ptr %34, i32 0, i32 2
  %36 = load ptr, ptr %35, align 8, !tbaa !10
  %37 = load ptr, ptr %9, align 8, !tbaa !31
  %38 = getelementptr inbounds ptr, ptr %37, i64 0
  %39 = load ptr, ptr %38, align 8, !tbaa !33
  %40 = getelementptr inbounds nuw %struct.strbuf, ptr %39, i32 0, i32 1
  %41 = load i64, ptr %40, align 8, !tbaa !35
  %42 = sub i64 %41, 1
  %43 = getelementptr inbounds nuw i8, ptr %36, i64 %42
  %44 = load i8, ptr %43, align 1, !tbaa !9
  %45 = sext i8 %44 to i32
  %46 = icmp eq i32 %45, 61
  br i1 %46, label %47, label %70

47:                                               ; preds = %31
  %48 = load ptr, ptr %9, align 8, !tbaa !31
  %49 = getelementptr inbounds ptr, ptr %48, i64 0
  %50 = load ptr, ptr %49, align 8, !tbaa !33
  %51 = load ptr, ptr %9, align 8, !tbaa !31
  %52 = getelementptr inbounds ptr, ptr %51, i64 0
  %53 = load ptr, ptr %52, align 8, !tbaa !33
  %54 = getelementptr inbounds nuw %struct.strbuf, ptr %53, i32 0, i32 1
  %55 = load i64, ptr %54, align 8, !tbaa !35
  %56 = sub i64 %55, 1
  call void @strbuf_setlen(ptr noundef %50, i64 noundef %56)
  %57 = load ptr, ptr %9, align 8, !tbaa !31
  %58 = getelementptr inbounds ptr, ptr %57, i64 1
  %59 = load ptr, ptr %58, align 8, !tbaa !33
  %60 = icmp ne ptr %59, null
  br i1 %60, label %61, label %67

61:                                               ; preds = %47
  %62 = load ptr, ptr %9, align 8, !tbaa !31
  %63 = getelementptr inbounds ptr, ptr %62, i64 1
  %64 = load ptr, ptr %63, align 8, !tbaa !33
  %65 = getelementptr inbounds nuw %struct.strbuf, ptr %64, i32 0, i32 2
  %66 = load ptr, ptr %65, align 8, !tbaa !10
  br label %68

67:                                               ; preds = %47
  br label %68

68:                                               ; preds = %67, %61
  %69 = phi ptr [ %66, %61 ], [ @.str.8, %67 ]
  store ptr %69, ptr %8, align 8, !tbaa !4
  br label %71

70:                                               ; preds = %31, %24
  store ptr null, ptr %8, align 8, !tbaa !4
  br label %71

71:                                               ; preds = %70, %68
  %72 = load ptr, ptr %9, align 8, !tbaa !31
  %73 = getelementptr inbounds ptr, ptr %72, i64 0
  %74 = load ptr, ptr %73, align 8, !tbaa !33
  call void @strbuf_trim(ptr noundef %74)
  %75 = load ptr, ptr %9, align 8, !tbaa !31
  %76 = getelementptr inbounds ptr, ptr %75, i64 0
  %77 = load ptr, ptr %76, align 8, !tbaa !33
  %78 = getelementptr inbounds nuw %struct.strbuf, ptr %77, i32 0, i32 1
  %79 = load i64, ptr %78, align 8, !tbaa !35
  %80 = icmp ne i64 %79, 0
  br i1 %80, label %87, label %81

81:                                               ; preds = %71
  %82 = load ptr, ptr %9, align 8, !tbaa !31
  call void @strbuf_list_free(ptr noundef %82)
  %83 = call ptr @_(ptr noundef @.str.7)
  %84 = load ptr, ptr %5, align 8, !tbaa !4
  %85 = call i32 (ptr, ...) @error(ptr noundef %83, ptr noundef %84)
  %86 = call i32 @const_error()
  store i32 %86, ptr %4, align 4
  store i32 1, ptr %12, align 4
  br label %99

87:                                               ; preds = %71
  %88 = load ptr, ptr %9, align 8, !tbaa !31
  %89 = getelementptr inbounds ptr, ptr %88, i64 0
  %90 = load ptr, ptr %89, align 8, !tbaa !33
  %91 = getelementptr inbounds nuw %struct.strbuf, ptr %90, i32 0, i32 2
  %92 = load ptr, ptr %91, align 8, !tbaa !10
  %93 = load ptr, ptr %8, align 8, !tbaa !4
  %94 = load ptr, ptr %6, align 8, !tbaa !30
  %95 = load ptr, ptr %7, align 8, !tbaa !30
  %96 = call i32 @config_parse_pair(ptr noundef %92, ptr noundef %93, ptr noundef %11, ptr noundef %94, ptr noundef %95)
  store i32 %96, ptr %10, align 4, !tbaa !13
  %97 = load ptr, ptr %9, align 8, !tbaa !31
  call void @strbuf_list_free(ptr noundef %97)
  %98 = load i32, ptr %10, align 4, !tbaa !13
  store i32 %98, ptr %4, align 4
  store i32 1, ptr %12, align 4
  br label %99

99:                                               ; preds = %87, %81, %19
  call void @llvm.lifetime.end.p0(i64 32, ptr %11) #13
  call void @llvm.lifetime.end.p0(i64 4, ptr %10) #13
  call void @llvm.lifetime.end.p0(i64 8, ptr %9) #13
  call void @llvm.lifetime.end.p0(i64 8, ptr %8) #13
  %100 = load i32, ptr %4, align 4
  ret i32 %100
}