; Function Attrs: nounwind uwtable
define dso_local range(i32 -1, 1) i32 @git_config_parse_parameter(ptr noundef %0, ptr noundef readonly captures(none) %1, ptr noundef %2) local_unnamed_addr #0 {
  %4 = alloca ptr, align 8
  %5 = alloca %struct.config_context, align 8
  %6 = alloca %struct.key_value_info, align 8
  call void @llvm.lifetime.start.p0(i64 32, ptr nonnull %6) #30
  call void @llvm.memcpy.p0.p0.i64(ptr noundef nonnull align 8 dereferenceable(32) %6, ptr noundef nonnull align 8 dereferenceable(32) @__const.do_config_from.kvi, i64 24, i1 false)
  store ptr null, ptr %6, align 8, !tbaa !20
  %7 = getelementptr inbounds nuw i8, ptr %6, i64 8
  store i32 -1, ptr %7, align 8, !tbaa !22
  %8 = getelementptr inbounds nuw i8, ptr %6, i64 12
  store i32 5, ptr %8, align 4, !tbaa !23
  %9 = getelementptr inbounds nuw i8, ptr %6, i64 16
  store i32 5, ptr %9, align 8, !tbaa !24
  %10 = getelementptr inbounds nuw i8, ptr %6, i64 24
  store ptr null, ptr %10, align 8, !tbaa !25
  %11 = tail call i64 @strlen(ptr noundef nonnull dereferenceable(1) %0) #29
  %12 = tail call ptr @strbuf_split_buf(ptr noundef nonnull %0, i64 noundef %11, i32 noundef 61, i32 noundef 2) #30
  %13 = load ptr, ptr %12, align 8, !tbaa !26
  %.not = icmp eq ptr %13, null
  br i1 %.not, label %14, label %19

14:                                               ; preds = %3
  %15 = load i32, ptr @git_gettext_enabled, align 4, !tbaa !14
  %.not4.i = icmp eq i32 %15, 0
  br i1 %.not4.i, label %_.exit, label %16

16:                                               ; preds = %14
  %17 = tail call ptr @dcgettext(ptr noundef null, ptr noundef nonnull @.str.7, i32 noundef 5) #30
  br label %_.exit

_.exit:                                           ; preds = %14, %16
  %.0.i = phi ptr [ %17, %16 ], [ @.str.7, %14 ]
  %18 = tail call i32 (ptr, ...) @error(ptr noundef %.0.i, ptr noundef nonnull %0) #30
  br label %63

19:                                               ; preds = %3
  %20 = getelementptr inbounds nuw i8, ptr %13, i64 8
  %21 = load i64, ptr %20, align 8, !tbaa !12
  %.not24 = icmp eq i64 %21, 0
  br i1 %.not24, label %40, label %22

22:                                               ; preds = %19
  %23 = getelementptr inbounds nuw i8, ptr %13, i64 16
  %24 = load ptr, ptr %23, align 8, !tbaa !13
  %25 = add i64 %21, -1
  %26 = getelementptr inbounds nuw i8, ptr %24, i64 %25
  %27 = load i8, ptr %26, align 1, !tbaa !4
  %28 = icmp eq i8 %27, 61
  br i1 %28, label %29, label %40

29:                                               ; preds = %22
  %30 = load i64, ptr %13, align 8, !tbaa !7
  %spec.select.i = tail call i64 @llvm.usub.sat.i64(i64 %30, i64 1)
  %31 = icmp ugt i64 %25, %spec.select.i
  br i1 %31, label %32, label %33

32:                                               ; preds = %29
  tail call void (ptr, i32, ptr, ...) @BUG_fl(ptr noundef nonnull @.str.88, i32 noundef 167, ptr noundef nonnull @.str.89) #31
  unreachable

33:                                               ; preds = %29
  store i64 %25, ptr %20, align 8, !tbaa !12
  %.not9.i = icmp eq ptr %24, @strbuf_slopbuf
  br i1 %.not9.i, label %strbuf_setlen.exit, label %34

34:                                               ; preds = %33
  store i8 0, ptr %26, align 1, !tbaa !4
  br label %strbuf_setlen.exit

strbuf_setlen.exit:                               ; preds = %33, %34
  %35 = getelementptr inbounds nuw i8, ptr %12, i64 8
  %36 = load ptr, ptr %35, align 8, !tbaa !26
  %.not25 = icmp eq ptr %36, null
  br i1 %.not25, label %40, label %37

37:                                               ; preds = %strbuf_setlen.exit
  %38 = getelementptr inbounds nuw i8, ptr %36, i64 16
  %39 = load ptr, ptr %38, align 8, !tbaa !13
  br label %40

40:                                               ; preds = %19, %22, %37, %strbuf_setlen.exit
  %.020 = phi ptr [ %39, %37 ], [ @.str.8, %strbuf_setlen.exit ], [ null, %22 ], [ null, %19 ]
  %41 = load ptr, ptr %12, align 8, !tbaa !26
  tail call void @strbuf_trim(ptr noundef %41) #30
  %42 = load ptr, ptr %12, align 8, !tbaa !26
  %43 = getelementptr inbounds nuw i8, ptr %42, i64 8
  %44 = load i64, ptr %43, align 8, !tbaa !12
  %.not26 = icmp eq i64 %44, 0
  br i1 %.not26, label %45, label %50

45:                                               ; preds = %40
  tail call void @strbuf_list_free(ptr noundef nonnull %12) #30
  %46 = load i32, ptr @git_gettext_enabled, align 4, !tbaa !14
  %.not4.i27 = icmp eq i32 %46, 0
  br i1 %.not4.i27, label %_.exit29, label %47

47:                                               ; preds = %45
  %48 = tail call ptr @dcgettext(ptr noundef null, ptr noundef nonnull @.str.7, i32 noundef 5) #30
  br label %_.exit29

_.exit29:                                         ; preds = %45, %47
  %.0.i28 = phi ptr [ %48, %47 ], [ @.str.7, %45 ]
  %49 = tail call i32 (ptr, ...) @error(ptr noundef %.0.i28, ptr noundef nonnull %0) #30
  br label %63

50:                                               ; preds = %40
  %51 = getelementptr inbounds nuw i8, ptr %42, i64 16
  %52 = load ptr, ptr %51, align 8, !tbaa !13
  call void @llvm.lifetime.start.p0(i64 8, ptr nonnull %4) #30
  call void @llvm.lifetime.start.p0(i64 8, ptr nonnull %5) #30
  store ptr %6, ptr %5, align 8, !tbaa !28
  %char0.i = load i8, ptr %52, align 1
  %.not.i = icmp eq i8 %char0.i, 0
  br i1 %.not.i, label %53, label %58

53:                                               ; preds = %50
  %54 = load i32, ptr @git_gettext_enabled, align 4, !tbaa !14
  %.not4.i.i = icmp eq i32 %54, 0
  br i1 %.not4.i.i, label %_.exit.i, label %55

55:                                               ; preds = %53
  %56 = call ptr @dcgettext(ptr noundef null, ptr noundef nonnull @.str.90, i32 noundef 5) #30
  br label %_.exit.i

_.exit.i:                                         ; preds = %55, %53
  %.0.i.i = phi ptr [ %56, %55 ], [ @.str.90, %53 ]
  %57 = call i32 (ptr, ...) @error(ptr noundef %.0.i.i) #30
  br label %config_parse_pair.exit

58:                                               ; preds = %50
  %59 = call i32 @git_config_parse_key(ptr noundef nonnull %52, ptr noundef nonnull %4, ptr noundef null)
  %.not7.i = icmp eq i32 %59, 0
  br i1 %.not7.i, label %60, label %config_parse_pair.exit

60:                                               ; preds = %58
  %61 = load ptr, ptr %4, align 8, !tbaa !17
  %62 = call i32 %1(ptr noundef %61, ptr noundef %.020, ptr noundef nonnull %5, ptr noundef %2) #30
  %.lobit.i = ashr i32 %62, 31
  call void @free(ptr noundef %61) #30
  br label %config_parse_pair.exit

config_parse_pair.exit:                           ; preds = %_.exit.i, %58, %60
  %.0.i30 = phi i32 [ %.lobit.i, %60 ], [ -1, %_.exit.i ], [ -1, %58 ]
  call void @llvm.lifetime.end.p0(i64 8, ptr nonnull %5) #30
  call void @llvm.lifetime.end.p0(i64 8, ptr nonnull %4) #30
  call void @strbuf_list_free(ptr noundef nonnull %12) #30
  br label %63

63:                                               ; preds = %config_parse_pair.exit, %_.exit29, %_.exit
  %.0 = phi i32 [ %.0.i30, %config_parse_pair.exit ], [ -1, %_.exit29 ], [ -1, %_.exit ]
  call void @llvm.lifetime.end.p0(i64 32, ptr nonnull %6) #30
  ret i32 %.0
}